; Function Attrs: mustprogress uwtable
define hidden noundef range(i64 0, 4294967296) i64 @_ZNK4cvc58internal8TCtxNode14getNumChildrenEv(ptr noundef nonnull readonly align 8 captures(none) dereferenceable(24) %0) local_unnamed_addr #3 align 2 {
  %2 = load ptr, ptr %0, align 8, !tbaa !3
  %3 = getelementptr inbounds nuw i8, ptr %2, i64 8
  %4 = load i64, ptr %3, align 8
  %5 = trunc i64 %4 to i32
  %6 = and i32 %5, 1023
  %7 = icmp eq i32 %6, 1023
  %8 = select i1 %7, i32 -1, i32 %6
  %9 = tail call noundef i32 @_ZN4cvc58internal4kind10metaKindOfENS1_6Kind_tE(i32 noundef %8)
  %10 = icmp eq i32 %9, 2
  %11 = load i64, ptr %3, align 8
  %12 = lshr i64 %11, 32
  %13 = and i64 %12, 67108863
  %14 = sext i1 %10 to i64
  %15 = add nsw i64 %13, %14
  %16 = and i64 %15, 4294967295
  ret i64 %16
}